; Function Attrs: nounwind uwtable
define internal void @mime_subparts_free(ptr noundef %0) #0 {
  %.not = icmp eq ptr %0, null
  br i1 %.not, label %16, label %2

2:                                                ; preds = %1
  %3 = load ptr, ptr %0, align 8, !tbaa !33
  %.not7 = icmp eq ptr %3, null
  br i1 %.not7, label %16, label %cleanup_part_content.exit

cleanup_part_content.exit:                        ; preds = %2
  %4 = getelementptr inbounds nuw i8, ptr %3, i64 32
  %5 = getelementptr inbounds nuw i8, ptr %3, i64 56
  tail call void @llvm.memset.p0.i64(ptr noundef nonnull align 8 dereferenceable(24) %4, i8 0, i64 24, i1 false)
  store ptr %3, ptr %5, align 8, !tbaa !19
  %6 = getelementptr inbounds nuw i8, ptr %3, i64 24
  store ptr null, ptr %6, align 8, !tbaa !20
  %7 = getelementptr inbounds nuw i8, ptr %3, i64 64
  store ptr null, ptr %7, align 8, !tbaa !21
  %8 = getelementptr inbounds nuw i8, ptr %3, i64 112
  store i64 0, ptr %8, align 8, !tbaa !22
  %9 = getelementptr inbounds nuw i8, ptr %3, i64 152
  tail call void @llvm.memset.p0.i64(ptr noundef nonnull align 8 dereferenceable(24) %9, i8 0, i64 24, i1 false)
  %10 = getelementptr inbounds nuw i8, ptr %3, i64 16
  store i32 0, ptr %10, align 8, !tbaa !23
  %11 = getelementptr inbounds nuw i8, ptr %3, i64 20
  %12 = load i32, ptr %11, align 4, !tbaa !24
  %13 = and i32 %12, -5
  store i32 %13, ptr %11, align 4, !tbaa !24
  %14 = getelementptr inbounds nuw i8, ptr %3, i64 432
  store i64 1, ptr %14, align 8, !tbaa !25
  %15 = getelementptr inbounds nuw i8, ptr %3, i64 120
  store i32 0, ptr %15, align 8, !tbaa !26
  br label %16

16:                                               ; preds = %cleanup_part_content.exit, %2, %1
  tail call void @curl_mime_free(ptr noundef %0)
  ret void
}